; Function Attrs: mustprogress uwtable
define hidden void @_ZN19OpenColorIO_v2_5dev13DefaultValues5CurveENS_12GradingStyleE(ptr dead_on_unwind noalias writable writeonly sret(%"class.std::shared_ptr") align 8 captures(none) initializes((0, 16)) %0, i32 noundef %1) local_unnamed_addr #3 personality ptr @__gxx_personality_v0 {
_ZNSt12__shared_ptrIN19OpenColorIO_v2_5dev19GradingBSplineCurveELN9__gnu_cxx12_Lock_policyE2EED2Ev.exit:
  %2 = alloca %"class.std::shared_ptr.0", align 8
  call void @llvm.lifetime.start.p0(i64 16, ptr nonnull %2) #22
  %3 = icmp eq i32 %1, 1
  %_ZN19OpenColorIO_v2_5dev19GradingRGBCurveImpl10DefaultLinE._ZN19OpenColorIO_v2_5dev19GradingRGBCurveImpl7DefaultE = select i1 %3, ptr @_ZN19OpenColorIO_v2_5dev19GradingRGBCurveImpl10DefaultLinE, ptr @_ZN19OpenColorIO_v2_5dev19GradingRGBCurveImpl7DefaultE
  call void @_ZNK19OpenColorIO_v2_5dev23GradingBSplineCurveImpl18createEditableCopyEv(ptr dead_on_unwind nonnull writable sret(%"class.std::shared_ptr.0") align 8 %2, ptr noundef nonnull align 8 dereferenceable(56) %_ZN19OpenColorIO_v2_5dev19GradingRGBCurveImpl10DefaultLinE._ZN19OpenColorIO_v2_5dev19GradingRGBCurveImpl7DefaultE)
  %4 = load ptr, ptr %2, align 8, !tbaa !3
  store ptr %4, ptr %0, align 8, !tbaa !11
  %5 = getelementptr inbounds nuw i8, ptr %0, i64 8
  %6 = getelementptr inbounds nuw i8, ptr %2, i64 8
  %7 = load ptr, ptr %6, align 8, !tbaa !13
  store ptr %7, ptr %5, align 8, !tbaa !13
  call void @llvm.lifetime.end.p0(i64 16, ptr nonnull %2) #22
  ret void
}